target datalayout = "e-m:e-p270:32:32-p271:32:32-p272:64:64-i64:64-i128:128-f80:128-n8:16:32:64-S128"
target triple = "x86_64-pc-linux-gnu"

%struct.SDL_CameraDriver = type { ptr, ptr, %struct.SDL_CameraDriverImpl, ptr, ptr, %struct.SDL_PendingCameraEvent, ptr, %struct.SDL_AtomicInt, %struct.SDL_AtomicInt }
%struct.SDL_CameraDriverImpl = type { ptr, ptr, ptr, ptr, ptr, ptr, ptr, ptr, i8 }
%struct.SDL_PendingCameraEvent = type { i32, i32, ptr }
%struct.SDL_AtomicInt = type { i32 }
%struct.SDL_Camera = type { ptr, ptr, i32, %struct.SDL_AtomicInt, ptr, ptr, ptr, ptr, i32, %struct.SDL_CameraSpec, %struct.SDL_CameraSpec, i32, ptr, i32, i64, i64, ptr, ptr, [8 x %struct.SurfaceList], %struct.SurfaceList, %struct.SurfaceList, %struct.SurfaceList, ptr, i32, i8, %struct.SDL_AtomicInt, %struct.SDL_AtomicInt, ptr, i32, i32, ptr }
%struct.SDL_CameraSpec = type { i32, i32, i32, i32, i32, i32 }
%struct.SurfaceList = type { ptr, i64, ptr }

@camera_driver = internal global %struct.SDL_CameraDriver zeroinitializer, align 8

; Function Attrs: nounwind uwtable
define internal void @ClosePhysicalCamera(ptr noundef %0) #0 {
  %2 = alloca ptr, align 8
  %3 = alloca ptr, align 8
  %4 = alloca ptr, align 8
  %5 = alloca i32, align 4
  store ptr %0, ptr %2, align 8
  %6 = load ptr, ptr %2, align 8
  %7 = icmp ne ptr %6, null
  br i1 %7, label %9, label %8

8:                                                ; preds = %1
  br label %134

9:                                                ; preds = %1
  %10 = load ptr, ptr %2, align 8
  %11 = getelementptr inbounds nuw %struct.SDL_Camera, ptr %10, i32 0, i32 25
  %12 = call i32 @SDL_SetAtomicInt_REAL(ptr noundef %11, i32 noundef 1)
  %13 = load ptr, ptr %2, align 8
  %14 = getelementptr inbounds nuw %struct.SDL_Camera, ptr %13, i32 0, i32 27
  %15 = load ptr, ptr %14, align 8
  %16 = icmp ne ptr %15, null
  br i1 %16, label %17, label %23

17:                                               ; preds = %9
  %18 = load ptr, ptr %2, align 8
  %19 = getelementptr inbounds nuw %struct.SDL_Camera, ptr %18, i32 0, i32 27
  %20 = load ptr, ptr %19, align 8
  call void @SDL_WaitThread_REAL(ptr noundef %20, ptr noundef null)
  %21 = load ptr, ptr %2, align 8
  %22 = getelementptr inbounds nuw %struct.SDL_Camera, ptr %21, i32 0, i32 27
  store ptr null, ptr %22, align 8
  br label %23

23:                                               ; preds = %17, %9
  %24 = load ptr, ptr %2, align 8
  %25 = getelementptr inbounds nuw %struct.SDL_Camera, ptr %24, i32 0, i32 24
  %26 = load i8, ptr %25, align 4, !range !5, !noundef !6
  %27 = trunc i8 %26 to i1
  br i1 %27, label %76, label %28

28:                                               ; preds = %23
  %29 = load ptr, ptr %2, align 8
  %30 = getelementptr inbounds nuw %struct.SDL_Camera, ptr %29, i32 0, i32 23
  %31 = load i32, ptr %30, align 8
  %32 = icmp ne i32 %31, 0
  br i1 %32, label %76, label %33

33:                                               ; preds = %28
  call void @llvm.lifetime.start.p0(i64 8, ptr %3) #7
  %34 = load ptr, ptr %2, align 8
  %35 = getelementptr inbounds nuw %struct.SDL_Camera, ptr %34, i32 0, i32 19
  %36 = getelementptr inbounds nuw %struct.SurfaceList, ptr %35, i32 0, i32 2
  %37 = load ptr, ptr %36, align 8
  store ptr %37, ptr %3, align 8
  br label %38

38:                                               ; preds = %50, %33
  %39 = load ptr, ptr %3, align 8
  %40 = icmp ne ptr %39, null
  br i1 %40, label %42, label %41

41:                                               ; preds = %38
  call void @llvm.lifetime.end.p0(i64 8, ptr %3) #7
  br label %54

42:                                               ; preds = %38
  %43 = load ptr, ptr %2, align 8
  %44 = getelementptr inbounds nuw %struct.SDL_Camera, ptr %43, i32 0, i32 6
  %45 = load ptr, ptr %44, align 8
  %46 = load ptr, ptr %2, align 8
  %47 = load ptr, ptr %3, align 8
  %48 = getelementptr inbounds nuw %struct.SurfaceList, ptr %47, i32 0, i32 0
  %49 = load ptr, ptr %48, align 8
  call void %45(ptr noundef %46, ptr noundef %49)
  br label %50

50:                                               ; preds = %42
  %51 = load ptr, ptr %3, align 8
  %52 = getelementptr inbounds nuw %struct.SurfaceList, ptr %51, i32 0, i32 2
  %53 = load ptr, ptr %52, align 8
  store ptr %53, ptr %3, align 8
  br label %38, !llvm.loop !9

54:                                               ; preds = %41
  call void @llvm.lifetime.start.p0(i64 8, ptr %4) #7
  %55 = load ptr, ptr %2, align 8
  %56 = getelementptr inbounds nuw %struct.SDL_Camera, ptr %55, i32 0, i32 21
  %57 = getelementptr inbounds nuw %struct.SurfaceList, ptr %56, i32 0, i32 2
  %58 = load ptr, ptr %57, align 8
  store ptr %58, ptr %4, align 8
  br label %59

59:                                               ; preds = %71, %54
  %60 = load ptr, ptr %4, align 8
  %61 = icmp ne ptr %60, null
  br i1 %61, label %63, label %62

62:                                               ; preds = %59
  call void @llvm.lifetime.end.p0(i64 8, ptr %4) #7
  br label %75

63:                                               ; preds = %59
  %64 = load ptr, ptr %2, align 8
  %65 = getelementptr inbounds nuw %struct.SDL_Camera, ptr %64, i32 0, i32 6
  %66 = load ptr, ptr %65, align 8
  %67 = load ptr, ptr %2, align 8
  %68 = load ptr, ptr %4, align 8
  %69 = getelementptr inbounds nuw %struct.SurfaceList, ptr %68, i32 0, i32 0
  %70 = load ptr, ptr %69, align 8
  call void %66(ptr noundef %67, ptr noundef %70)
  br label %71

71:                                               ; preds = %63
  %72 = load ptr, ptr %4, align 8
  %73 = getelementptr inbounds nuw %struct.SurfaceList, ptr %72, i32 0, i32 2
  %74 = load ptr, ptr %73, align 8
  store ptr %74, ptr %4, align 8
  br label %59, !llvm.loop !10

75:                                               ; preds = %62
  br label %76

76:                                               ; preds = %75, %28, %23
  %77 = load ptr, ptr getelementptr inbounds nuw (%struct.SDL_CameraDriverImpl, ptr getelementptr inbounds nuw (%struct.SDL_CameraDriver, ptr @camera_driver, i32 0, i32 2), i32 0, i32 2), align 8
  %78 = load ptr, ptr %2, align 8
  call void %77(ptr noundef %78)
  %79 = load ptr, ptr %2, align 8
  %80 = getelementptr inbounds nuw %struct.SDL_Camera, ptr %79, i32 0, i32 28
  %81 = load i32, ptr %80, align 8
  call void @SDL_DestroyProperties_REAL(i32 noundef %81)
  %82 = load ptr, ptr %2, align 8
  %83 = getelementptr inbounds nuw %struct.SDL_Camera, ptr %82, i32 0, i32 16
  %84 = load ptr, ptr %83, align 8
  call void @SDL_DestroySurface_REAL(ptr noundef %84)
  %85 = load ptr, ptr %2, align 8
  %86 = getelementptr inbounds nuw %struct.SDL_Camera, ptr %85, i32 0, i32 16
  store ptr null, ptr %86, align 8
  %87 = load ptr, ptr %2, align 8
  %88 = getelementptr inbounds nuw %struct.SDL_Camera, ptr %87, i32 0, i32 17
  %89 = load ptr, ptr %88, align 8
  call void @SDL_DestroySurface_REAL(ptr noundef %89)
  %90 = load ptr, ptr %2, align 8
  %91 = getelementptr inbounds nuw %struct.SDL_Camera, ptr %90, i32 0, i32 17
  store ptr null, ptr %91, align 8
  call void @llvm.lifetime.start.p0(i64 4, ptr %5) #7
  store i32 0, ptr %5, align 4
  br label %92

92:                                               ; preds = %105, %76
  %93 = load i32, ptr %5, align 4
  %94 = sext i32 %93 to i64
  %95 = icmp ult i64 %94, 8
  br i1 %95, label %97, label %96

96:                                               ; preds = %92
  call void @llvm.lifetime.end.p0(i64 4, ptr %5) #7
  br label %108

97:                                               ; preds = %92
  %98 = load ptr, ptr %2, align 8
  %99 = getelementptr inbounds nuw %struct.SDL_Camera, ptr %98, i32 0, i32 18
  %100 = load i32, ptr %5, align 4
  %101 = sext i32 %100 to i64
  %102 = getelementptr inbounds [8 x %struct.SurfaceList], ptr %99, i64 0, i64 %101
  %103 = getelementptr inbounds nuw %struct.SurfaceList, ptr %102, i32 0, i32 0
  %104 = load ptr, ptr %103, align 8
  call void @SDL_DestroySurface_REAL(ptr noundef %104)
  br label %105

105:                                              ; preds = %97
  %106 = load i32, ptr %5, align 4
  %107 = add nsw i32 %106, 1
  store i32 %107, ptr %5, align 4
  br label %92, !llvm.loop !11

108:                                              ; preds = %96
  %109 = load ptr, ptr %2, align 8
  %110 = getelementptr inbounds nuw %struct.SDL_Camera, ptr %109, i32 0, i32 18
  %111 = getelementptr inbounds [8 x %struct.SurfaceList], ptr %110, i64 0, i64 0
  call void @llvm.memset.p0.i64(ptr align 8 %111, i8 0, i64 192, i1 false)
  %112 = load ptr, ptr %2, align 8
  %113 = getelementptr inbounds nuw %struct.SDL_Camera, ptr %112, i32 0, i32 22
  %114 = load ptr, ptr %113, align 8
  call void @SDL_aligned_free_REAL(ptr noundef %114)
  %115 = load ptr, ptr %2, align 8
  %116 = getelementptr inbounds nuw %struct.SDL_Camera, ptr %115, i32 0, i32 29
  store i32 0, ptr %116, align 4
  %117 = load ptr, ptr %2, align 8
  %118 = getelementptr inbounds nuw %struct.SDL_Camera, ptr %117, i32 0, i32 22
  store ptr null, ptr %118, align 8
  %119 = load ptr, ptr %2, align 8
  %120 = getelementptr inbounds nuw %struct.SDL_Camera, ptr %119, i32 0, i32 19
  %121 = getelementptr inbounds nuw %struct.SurfaceList, ptr %120, i32 0, i32 2
  store ptr null, ptr %121, align 8
  %122 = load ptr, ptr %2, align 8
  %123 = getelementptr inbounds nuw %struct.SDL_Camera, ptr %122, i32 0, i32 20
  %124 = getelementptr inbounds nuw %struct.SurfaceList, ptr %123, i32 0, i32 2
  store ptr null, ptr %124, align 8
  %125 = load ptr, ptr %2, align 8
  %126 = getelementptr inbounds nuw %struct.SDL_Camera, ptr %125, i32 0, i32 21
  %127 = getelementptr inbounds nuw %struct.SurfaceList, ptr %126, i32 0, i32 2
  store ptr null, ptr %127, align 8
  %128 = load ptr, ptr %2, align 8
  %129 = getelementptr inbounds nuw %struct.SDL_Camera, ptr %128, i32 0, i32 14
  store i64 0, ptr %129, align 8
  %130 = load ptr, ptr %2, align 8
  %131 = getelementptr inbounds nuw %struct.SDL_Camera, ptr %130, i32 0, i32 15
  store i64 0, ptr %131, align 8
  %132 = load ptr, ptr %2, align 8
  %133 = getelementptr inbounds nuw %struct.SDL_Camera, ptr %132, i32 0, i32 10
  call void @llvm.memset.p0.i64(ptr align 4 %133, i8 0, i64 24, i1 false)
  br label %134

134:                                              ; preds = %108, %8
  ret void
}