; Function Attrs: nounwind uwtable
define internal fastcc void @ClosePhysicalCamera(ptr noundef %0) unnamed_addr #1 {
  %.not = icmp eq ptr %0, null
  br i1 %.not, label %48, label %2

2:                                                ; preds = %1
  %3 = getelementptr inbounds nuw i8, ptr %0, i64 440
  %4 = tail call i32 @SDL_SetAtomicInt_REAL(ptr noundef nonnull %3, i32 noundef 1) #11
  %5 = getelementptr inbounds nuw i8, ptr %0, i64 448
  %6 = load ptr, ptr %5, align 8
  %.not43 = icmp eq ptr %6, null
  br i1 %.not43, label %8, label %7

7:                                                ; preds = %2
  tail call void @SDL_WaitThread_REAL(ptr noundef nonnull %6, ptr noundef null) #11
  store ptr null, ptr %5, align 8
  br label %8

8:                                                ; preds = %7, %2
  %9 = getelementptr inbounds nuw i8, ptr %0, i64 436
  %10 = load i8, ptr %9, align 4, !range !7, !noundef !8
  %11 = trunc nuw i8 %10 to i1
  br i1 %11, label %.loopexit, label %12

12:                                               ; preds = %8
  %13 = getelementptr inbounds nuw i8, ptr %0, i64 432
  %14 = load i32, ptr %13, align 8
  %.not44 = icmp eq i32 %14, 0
  br i1 %.not44, label %15, label %.loopexit

15:                                               ; preds = %12
  %16 = getelementptr inbounds nuw i8, ptr %0, i64 368
  %.03947 = load ptr, ptr %16, align 8
  %.not4548 = icmp eq ptr %.03947, null
  br i1 %.not4548, label %._crit_edge, label %.lr.ph

.lr.ph:                                           ; preds = %15
  %17 = getelementptr inbounds nuw i8, ptr %0, i64 40
  br label %20

._crit_edge:                                      ; preds = %20, %15
  %18 = getelementptr inbounds nuw i8, ptr %0, i64 416
  %.03850 = load ptr, ptr %18, align 8
  %.not4651 = icmp eq ptr %.03850, null
  br i1 %.not4651, label %.loopexit, label %.lr.ph54

.lr.ph54:                                         ; preds = %._crit_edge
  %19 = getelementptr inbounds nuw i8, ptr %0, i64 40
  br label %24

20:                                               ; preds = %.lr.ph, %20
  %.03949 = phi ptr [ %.03947, %.lr.ph ], [ %.039, %20 ]
  %21 = load ptr, ptr %17, align 8
  %22 = load ptr, ptr %.03949, align 8
  tail call void %21(ptr noundef nonnull %0, ptr noundef %22) #11
  %23 = getelementptr inbounds nuw i8, ptr %.03949, i64 16
  %.039 = load ptr, ptr %23, align 8
  %.not45 = icmp eq ptr %.039, null
  br i1 %.not45, label %._crit_edge, label %20, !llvm.loop !9

24:                                               ; preds = %.lr.ph54, %24
  %.03852 = phi ptr [ %.03850, %.lr.ph54 ], [ %.038, %24 ]
  %25 = load ptr, ptr %19, align 8
  %26 = load ptr, ptr %.03852, align 8
  tail call void %25(ptr noundef nonnull %0, ptr noundef %26) #11
  %27 = getelementptr inbounds nuw i8, ptr %.03852, i64 16
  %.038 = load ptr, ptr %27, align 8
  %.not46 = icmp eq ptr %.038, null
  br i1 %.not46, label %.loopexit, label %24, !llvm.loop !10

.loopexit:                                        ; preds = %24, %._crit_edge, %12, %8
  %28 = load ptr, ptr getelementptr inbounds nuw (i8, ptr @camera_driver, i64 32), align 8
  tail call void %28(ptr noundef nonnull %0) #11
  %29 = getelementptr inbounds nuw i8, ptr %0, i64 456
  %30 = load i32, ptr %29, align 8
  tail call void @SDL_DestroyProperties_REAL(i32 noundef %30) #11
  %31 = getelementptr inbounds nuw i8, ptr %0, i64 144
  %32 = load ptr, ptr %31, align 8
  tail call void @SDL_DestroySurface_REAL(ptr noundef %32) #11
  store ptr null, ptr %31, align 8
  %33 = getelementptr inbounds nuw i8, ptr %0, i64 152
  %34 = load ptr, ptr %33, align 8
  tail call void @SDL_DestroySurface_REAL(ptr noundef %34) #11
  store ptr null, ptr %33, align 8
  %35 = getelementptr inbounds nuw i8, ptr %0, i64 160
  br label %45

36:                                               ; preds = %45
  tail call void @llvm.memset.p0.i64(ptr noundef nonnull align 8 dereferenceable(192) %35, i8 0, i64 192, i1 false)
  %37 = getelementptr inbounds nuw i8, ptr %0, i64 424
  %38 = load ptr, ptr %37, align 8
  tail call void @SDL_aligned_free_REAL(ptr noundef %38) #11
  %39 = getelementptr inbounds nuw i8, ptr %0, i64 460
  store i32 0, ptr %39, align 4
  %40 = getelementptr inbounds nuw i8, ptr %0, i64 368
  store ptr null, ptr %40, align 8
  %41 = getelementptr inbounds nuw i8, ptr %0, i64 392
  store ptr null, ptr %41, align 8
  %42 = getelementptr inbounds nuw i8, ptr %0, i64 416
  %43 = getelementptr inbounds nuw i8, ptr %0, i64 128
  %44 = getelementptr inbounds nuw i8, ptr %0, i64 84
  tail call void @llvm.memset.p0.i64(ptr noundef nonnull align 4 dereferenceable(24) %44, i8 0, i64 24, i1 false)
  tail call void @llvm.memset.p0.i64(ptr noundef nonnull align 8 dereferenceable(16) %43, i8 0, i64 16, i1 false)
  tail call void @llvm.memset.p0.i64(ptr noundef nonnull align 8 dereferenceable(16) %42, i8 0, i64 16, i1 false)
  br label %48

45:                                               ; preds = %.loopexit, %45
  %indvars.iv = phi i64 [ 0, %.loopexit ], [ %indvars.iv.next, %45 ]
  %46 = getelementptr inbounds nuw [8 x %struct.SurfaceList], ptr %35, i64 0, i64 %indvars.iv
  %47 = load ptr, ptr %46, align 8
  tail call void @SDL_DestroySurface_REAL(ptr noundef %47) #11
  %indvars.iv.next = add nuw nsw i64 %indvars.iv, 1
  %exitcond.not = icmp eq i64 %indvars.iv.next, 8
  br i1 %exitcond.not, label %36, label %45, !llvm.loop !11

48:                                               ; preds = %1, %36
  ret void
}